target datalayout = "e-m:e-p270:32:32-p271:32:32-p272:64:64-i64:64-i128:128-f80:128-n8:16:32:64-S128"
target triple = "x86_64-pc-linux-gnu"

%"class.std::__cxx11::basic_string" = type { %"struct.std::__cxx11::basic_string<char>::_Alloc_hider", i64, %union.anon }
%"struct.std::__cxx11::basic_string<char>::_Alloc_hider" = type { ptr }
%union.anon = type { i64, [8 x i8] }
%"class.std::allocator" = type { i8 }
%"struct.faiss::IOReader" = type { ptr, %"class.std::__cxx11::basic_string" }
%"struct.faiss::BufferedIOReader" = type { %"struct.faiss::IOReader", ptr, i64, i64, i64, i64, i64, %"class.std::vector.3" }
%"class.std::vector.3" = type { %"struct.std::_Vector_base.4" }
%"struct.std::_Vector_base.4" = type { %"struct.std::_Vector_base<char, std::allocator<char>>::_Vector_impl" }
%"struct.std::_Vector_base<char, std::allocator<char>>::_Vector_impl" = type { %"struct.std::_Vector_base<char, std::allocator<char>>::_Vector_impl_data" }
%"struct.std::_Vector_base<char, std::allocator<char>>::_Vector_impl_data" = type { ptr, ptr, ptr }

@_ZTVN5faiss8IOReaderE = unnamed_addr constant { [6 x ptr] } { [6 x ptr] [ptr null, ptr @_ZTIN5faiss8IOReaderE, ptr @__cxa_pure_virtual, ptr @_ZN5faiss8IOReader6filenoEv, ptr @_ZN5faiss8IOReaderD2Ev, ptr @_ZN5faiss8IOReaderD0Ev] }, align 8
@_ZTVN5faiss16BufferedIOReaderE = unnamed_addr constant { [6 x ptr] } { [6 x ptr] [ptr null, ptr @_ZTIN5faiss16BufferedIOReaderE, ptr @_ZN5faiss16BufferedIOReaderclEPvmm, ptr @_ZN5faiss8IOReader6filenoEv, ptr @_ZN5faiss16BufferedIOReaderD2Ev, ptr @_ZN5faiss16BufferedIOReaderD0Ev] }, align 8

; Function Attrs: mustprogress nounwind uwtable
define linkonce_odr void @_ZN5faiss8IOReaderD2Ev(ptr noundef nonnull align 8 dereferenceable(40) %0) unnamed_addr #1 comdat align 2 {
  %2 = alloca ptr, align 8
  store ptr %0, ptr %2, align 8
  %3 = load ptr, ptr %2, align 8
  store ptr getelementptr inbounds ({ [6 x ptr] }, ptr @_ZTVN5faiss8IOReaderE, i32 0, i32 0, i32 2), ptr %3, align 8
  %4 = getelementptr inbounds %"struct.faiss::IOReader", ptr %3, i32 0, i32 1
  call void @_ZNSt7__cxx1112basic_stringIcSt11char_traitsIcESaIcEED1Ev(ptr noundef nonnull align 8 dereferenceable(32) %4) #12
  ret void
}

; Function Attrs: mustprogress nounwind uwtable
define linkonce_odr void @_ZN5faiss8IOReaderC2Ev(ptr noundef nonnull align 8 dereferenceable(40) %0) unnamed_addr #1 comdat align 2 {
  %2 = alloca ptr, align 8
  store ptr %0, ptr %2, align 8
  %3 = load ptr, ptr %2, align 8
  store ptr getelementptr inbounds ({ [6 x ptr] }, ptr @_ZTVN5faiss8IOReaderE, i32 0, i32 0, i32 2), ptr %3, align 8
  %4 = getelementptr inbounds %"struct.faiss::IOReader", ptr %3, i32 0, i32 1
  call void @_ZNSt7__cxx1112basic_stringIcSt11char_traitsIcESaIcEEC1Ev(ptr noundef nonnull align 8 dereferenceable(32) %4) #12
  ret void
}

; Function Attrs: mustprogress uwtable
define void @_ZN5faiss16BufferedIOReaderC2EPNS_8IOReaderEm(ptr noundef nonnull align 8 dereferenceable(112) %0, ptr noundef %1, i64 noundef %2) unnamed_addr #0 align 2 personality ptr @__gxx_personality_v0 {
  %4 = alloca ptr, align 8
  %5 = alloca ptr, align 8
  %6 = alloca i64, align 8
  %7 = alloca %"class.std::allocator", align 1
  %8 = alloca ptr, align 8
  %9 = alloca i32, align 4
  store ptr %0, ptr %4, align 8
  store ptr %1, ptr %5, align 8
  store i64 %2, ptr %6, align 8
  %10 = load ptr, ptr %4, align 8
  call void @_ZN5faiss8IOReaderC2Ev(ptr noundef nonnull align 8 dereferenceable(40) %10) #12
  store ptr getelementptr inbounds ({ [6 x ptr] }, ptr @_ZTVN5faiss16BufferedIOReaderE, i32 0, i32 0, i32 2), ptr %10, align 8
  %11 = getelementptr inbounds %"struct.faiss::BufferedIOReader", ptr %10, i32 0, i32 1
  %12 = load ptr, ptr %5, align 8
  store ptr %12, ptr %11, align 8
  %13 = getelementptr inbounds %"struct.faiss::BufferedIOReader", ptr %10, i32 0, i32 2
  %14 = load i64, ptr %6, align 8
  store i64 %14, ptr %13, align 8
  %15 = getelementptr inbounds %"struct.faiss::BufferedIOReader", ptr %10, i32 0, i32 3
  store i64 0, ptr %15, align 8
  %16 = getelementptr inbounds %"struct.faiss::BufferedIOReader", ptr %10, i32 0, i32 4
  store i64 0, ptr %16, align 8
  %17 = getelementptr inbounds %"struct.faiss::BufferedIOReader", ptr %10, i32 0, i32 5
  store i64 0, ptr %17, align 8
  %18 = getelementptr inbounds %"struct.faiss::BufferedIOReader", ptr %10, i32 0, i32 6
  store i64 0, ptr %18, align 8
  %19 = getelementptr inbounds %"struct.faiss::BufferedIOReader", ptr %10, i32 0, i32 7
  %20 = load i64, ptr %6, align 8
  call void @_ZNSaIcEC1Ev(ptr noundef nonnull align 1 dereferenceable(1) %7) #12
  invoke void @_ZNSt6vectorIcSaIcEEC2EmRKS0_(ptr noundef nonnull align 8 dereferenceable(24) %19, i64 noundef %20, ptr noundef nonnull align 1 dereferenceable(1) %7)
          to label %21 unwind label %22

21:                                               ; preds = %3
  call void @_ZNSaIcED1Ev(ptr noundef nonnull align 1 dereferenceable(1) %7) #12
  ret void

22:                                               ; preds = %3
  %23 = landingpad { ptr, i32 }
          cleanup
  %24 = extractvalue { ptr, i32 } %23, 0
  store ptr %24, ptr %8, align 8
  %25 = extractvalue { ptr, i32 } %23, 1
  store i32 %25, ptr %9, align 4
  call void @_ZNSaIcED1Ev(ptr noundef nonnull align 1 dereferenceable(1) %7) #12
  call void @_ZN5faiss8IOReaderD2Ev(ptr noundef nonnull align 8 dereferenceable(40) %10) #12
  br label %26

26:                                               ; preds = %22
  %27 = load ptr, ptr %8, align 8
  %28 = load i32, ptr %9, align 4
  %29 = insertvalue { ptr, i32 } poison, ptr %27, 0
  %30 = insertvalue { ptr, i32 } %29, i32 %28, 1
  resume { ptr, i32 } %30
}